target datalayout = "e-m:e-p270:32:32-p271:32:32-p272:64:64-i64:64-i128:128-f80:128-n8:16:32:64-S128"
target triple = "x86_64-pc-linux-gnu"

%struct._zend_executor_globals = type { %struct._zval_struct, %struct._zval_struct, [32 x ptr], ptr, ptr, %struct._zend_array, %struct._zend_array, ptr, i32, i32, ptr, ptr, ptr, ptr, ptr, ptr, i64, ptr, ptr, i32, i32, i64, i32, i32, i32, i8, i8, %struct.zend_atomic_bool_s, %struct.zend_atomic_bool_s, ptr, i64, ptr, ptr, %struct._zend_array, %struct._zend_array, i32, i8, %struct._zval_struct, %struct._zval_struct, %struct._zend_stack, %struct._zend_stack, %struct._zend_stack, ptr, i32, i32, i64, ptr, ptr, ptr, %struct._zend_objects_store, ptr, ptr, ptr, [3 x %struct._zend_op], ptr, i8, i8, i64, i32, i32, ptr, [16 x %struct._HashTableIterator], ptr, %union._zend_function, %struct._zend_op, %struct._zend_array, i64, %struct.zend_get_gc_buffer, ptr, ptr, ptr, i64, i8, i32, ptr, ptr, i64, %struct._zend_call_stack, i64, i64, [6 x ptr] }
%struct.zend_atomic_bool_s = type { i8 }
%struct._zval_struct = type { %union._zend_value, %union.anon.0, %union.anon.3 }
%union._zend_value = type { i64 }
%union.anon.0 = type { i32 }
%union.anon.3 = type { i32 }
%struct._zend_stack = type { i32, i32, i32, ptr }
%struct._zend_objects_store = type { ptr, i32, i32, i32 }
%struct._HashTableIterator = type { ptr, i32, i32 }
%union._zend_function = type { %struct._zend_op_array }
%struct._zend_op_array = type { i8, [3 x i8], i32, ptr, ptr, ptr, i32, i32, ptr, ptr, ptr, ptr, i32, i32, i32, i32, ptr, ptr, ptr, ptr, ptr, i32, i32, ptr, ptr, ptr, i32, i32, i32, i32, ptr, ptr, [6 x ptr] }
%struct._zend_op = type { ptr, %union._znode_op, %union._znode_op, %union._znode_op, i32, i32, i8, i8, i8, i8 }
%union._znode_op = type { i32 }
%struct._zend_array = type { %struct._zend_refcounted_h, %union.anon.5, i32, %union.anon.7, i32, i32, i32, i32, i64, ptr }
%struct._zend_refcounted_h = type { i32, %union.anon }
%union.anon = type { i32 }
%union.anon.5 = type { i32 }
%union.anon.7 = type { ptr }
%struct.zend_get_gc_buffer = type { ptr, ptr, ptr }
%struct._zend_call_stack = type { ptr, i64 }
%struct._zend_execute_data = type { ptr, ptr, ptr, ptr, %struct._zval_struct, ptr, ptr, ptr, ptr }

@executor_globals = external global %struct._zend_executor_globals, align 8
@.str.42 = private unnamed_addr constant [56 x i8] c"Invalid serialization data for DateTimeImmutable object\00", align 1

; Function Attrs: nounwind uwtable
define internal ptr @php_date_obj_from_obj(ptr noundef %0) #0 {
  %2 = alloca ptr, align 8
  store ptr %0, ptr %2, align 8
  %3 = load ptr, ptr %2, align 8
  %4 = getelementptr inbounds i8, ptr %3, i64 -8
  ret ptr %4
}

; Function Attrs: nounwind uwtable
define hidden void @zim_DateTimeImmutable___unserialize(ptr noundef %0, ptr noundef %1) #0 {
  %3 = alloca ptr, align 8
  %4 = alloca ptr, align 8
  %5 = alloca ptr, align 8
  %6 = alloca i1, align 1
  %7 = alloca ptr, align 8
  %8 = alloca ptr, align 8
  %9 = alloca i8, align 1
  %10 = alloca i8, align 1
  %11 = alloca ptr, align 8
  %12 = alloca ptr, align 8
  %13 = alloca ptr, align 8
  %14 = alloca ptr, align 8
  %15 = alloca ptr, align 8
  %16 = alloca ptr, align 8
  %17 = alloca i32, align 4
  %18 = alloca i32, align 4
  %19 = alloca i32, align 4
  %20 = alloca i32, align 4
  %21 = alloca i32, align 4
  %22 = alloca ptr, align 8
  %23 = alloca ptr, align 8
  %24 = alloca i32, align 4
  %25 = alloca ptr, align 8
  %26 = alloca i8, align 1
  %27 = alloca i8, align 1
  %28 = alloca i32, align 4
  store ptr %0, ptr %11, align 8
  store ptr %1, ptr %12, align 8
  %29 = load ptr, ptr %11, align 8
  %30 = getelementptr inbounds %struct._zend_execute_data, ptr %29, i32 0, i32 4
  store ptr %30, ptr %13, align 8
  br label %31

31:                                               ; preds = %2
  store i32 0, ptr %17, align 4
  store i32 1, ptr %18, align 4
  store i32 1, ptr %19, align 4
  %32 = load ptr, ptr %11, align 8
  %33 = getelementptr inbounds %struct._zend_execute_data, ptr %32, i32 0, i32 4
  %34 = getelementptr inbounds %struct._zval_struct, ptr %33, i32 0, i32 2
  %35 = load i32, ptr %34, align 4
  store i32 %35, ptr %20, align 4
  store i32 0, ptr %21, align 4
  store ptr null, ptr %23, align 8
  store i32 0, ptr %24, align 4
  store ptr null, ptr %25, align 8
  store i8 0, ptr %26, align 1
  store i8 0, ptr %27, align 1
  store i32 0, ptr %28, align 4
  br label %36

36:                                               ; preds = %31
  %37 = load i32, ptr %20, align 4
  %38 = load i32, ptr %18, align 4
  %39 = icmp ult i32 %37, %38
  %40 = xor i1 %39, true
  %41 = xor i1 %40, true
  %42 = zext i1 %41 to i32
  %43 = sext i32 %42 to i64
  %44 = icmp ne i64 %43, 0
  br i1 %44, label %54, label %45

45:                                               ; preds = %36
  %46 = load i32, ptr %20, align 4
  %47 = load i32, ptr %19, align 4
  %48 = icmp ugt i32 %46, %47
  %49 = xor i1 %48, true
  %50 = xor i1 %49, true
  %51 = zext i1 %50 to i32
  %52 = sext i32 %51 to i64
  %53 = icmp ne i64 %52, 0
  br i1 %53, label %54, label %57

54:                                               ; preds = %45, %36
  %55 = load i32, ptr %18, align 4
  %56 = load i32, ptr %19, align 4
  call void @zend_wrong_parameters_count_error(i32 noundef %55, i32 noundef %56)
  store i32 1, ptr %28, align 4
  br label %151

57:                                               ; preds = %45
  %58 = load ptr, ptr %11, align 8
  %59 = getelementptr inbounds %struct._zval_struct, ptr %58, i64 4
  store ptr %59, ptr %22, align 8
  %60 = load i32, ptr %21, align 4
  %61 = add i32 %60, 1
  store i32 %61, ptr %21, align 4
  %62 = load i32, ptr %21, align 4
  %63 = load i32, ptr %18, align 4
  %64 = icmp ule i32 %62, %63
  br i1 %64, label %70, label %65

65:                                               ; preds = %57
  %66 = load i8, ptr %27, align 1
  %67 = trunc i8 %66 to i1
  %68 = zext i1 %67 to i32
  %69 = icmp eq i32 %68, 1
  br label %70

70:                                               ; preds = %65, %57
  %71 = phi i1 [ true, %57 ], [ %69, %65 ]
  call void @llvm.assume(i1 %71)
  %72 = load i32, ptr %21, align 4
  %73 = load i32, ptr %18, align 4
  %74 = icmp ugt i32 %72, %73
  br i1 %74, label %80, label %75

75:                                               ; preds = %70
  %76 = load i8, ptr %27, align 1
  %77 = trunc i8 %76 to i1
  %78 = zext i1 %77 to i32
  %79 = icmp eq i32 %78, 0
  br label %80

80:                                               ; preds = %75, %70
  %81 = phi i1 [ true, %70 ], [ %79, %75 ]
  call void @llvm.assume(i1 %81)
  %82 = load i8, ptr %27, align 1
  %83 = trunc i8 %82 to i1
  br i1 %83, label %84, label %95

84:                                               ; preds = %80
  %85 = load i32, ptr %21, align 4
  %86 = load i32, ptr %20, align 4
  %87 = icmp ugt i32 %85, %86
  %88 = xor i1 %87, true
  %89 = xor i1 %88, true
  %90 = zext i1 %89 to i32
  %91 = sext i32 %90 to i64
  %92 = icmp ne i64 %91, 0
  br i1 %92, label %93, label %94

93:                                               ; preds = %84
  br label %151

94:                                               ; preds = %84
  br label %95

95:                                               ; preds = %94, %80
  %96 = load ptr, ptr %22, align 8
  %97 = getelementptr inbounds %struct._zval_struct, ptr %96, i32 1
  store ptr %97, ptr %22, align 8
  %98 = load ptr, ptr %22, align 8
  store ptr %98, ptr %23, align 8
  %99 = load ptr, ptr %23, align 8
  store ptr %99, ptr %7, align 8
  store ptr %15, ptr %8, align 8
  store i8 0, ptr %9, align 1
  store i8 0, ptr %10, align 1
  %100 = load ptr, ptr %7, align 8
  store ptr %100, ptr %3, align 8
  %101 = load ptr, ptr %3, align 8
  %102 = getelementptr inbounds %struct._zval_struct, ptr %101, i32 0, i32 1
  %103 = load i8, ptr %102, align 8
  %104 = zext i8 %103 to i32
  %105 = icmp eq i32 %104, 7
  br i1 %105, label %116, label %106

106:                                              ; preds = %95
  %107 = load i8, ptr %10, align 1
  %108 = trunc i8 %107 to i1
  br i1 %108, label %109, label %119

109:                                              ; preds = %106
  %110 = load ptr, ptr %7, align 8
  store ptr %110, ptr %4, align 8
  %111 = load ptr, ptr %4, align 8
  %112 = getelementptr inbounds %struct._zval_struct, ptr %111, i32 0, i32 1
  %113 = load i8, ptr %112, align 8
  %114 = zext i8 %113 to i32
  %115 = icmp eq i32 %114, 8
  br i1 %115, label %116, label %119

116:                                              ; preds = %109, %95
  %117 = load ptr, ptr %7, align 8
  %118 = load ptr, ptr %8, align 8
  store ptr %117, ptr %118, align 8
  br label %132

119:                                              ; preds = %109, %106
  %120 = load i8, ptr %9, align 1
  %121 = trunc i8 %120 to i1
  br i1 %121, label %122, label %131

122:                                              ; preds = %119
  %123 = load ptr, ptr %7, align 8
  store ptr %123, ptr %5, align 8
  %124 = load ptr, ptr %5, align 8
  %125 = getelementptr inbounds %struct._zval_struct, ptr %124, i32 0, i32 1
  %126 = load i8, ptr %125, align 8
  %127 = zext i8 %126 to i32
  %128 = icmp eq i32 %127, 1
  br i1 %128, label %129, label %131

129:                                              ; preds = %122
  %130 = load ptr, ptr %8, align 8
  store ptr null, ptr %130, align 8
  br label %132

131:                                              ; preds = %122, %119
  store i1 false, ptr %6, align 1
  br label %133

132:                                              ; preds = %129, %116
  store i1 true, ptr %6, align 1
  br label %133

133:                                              ; preds = %132, %131
  %134 = load i1, ptr %6, align 1
  %135 = xor i1 %134, true
  %136 = xor i1 %135, true
  %137 = xor i1 %136, true
  %138 = zext i1 %137 to i32
  %139 = sext i32 %138 to i64
  %140 = icmp ne i64 %139, 0
  br i1 %140, label %141, label %142

141:                                              ; preds = %133
  store i32 6, ptr %24, align 4
  store i32 9, ptr %28, align 4
  br label %151

142:                                              ; preds = %133
  %143 = load i32, ptr %21, align 4
  %144 = load i32, ptr %19, align 4
  %145 = icmp eq i32 %143, %144
  br i1 %145, label %149, label %146

146:                                              ; preds = %142
  %147 = load i32, ptr %19, align 4
  %148 = icmp eq i32 %147, -1
  br label %149

149:                                              ; preds = %146, %142
  %150 = phi i1 [ true, %142 ], [ %148, %146 ]
  call void @llvm.assume(i1 %150)
  br label %151

151:                                              ; preds = %149, %141, %93, %54
  %152 = load i32, ptr %28, align 4
  %153 = icmp ne i32 %152, 0
  %154 = xor i1 %153, true
  %155 = xor i1 %154, true
  %156 = zext i1 %155 to i32
  %157 = sext i32 %156 to i64
  %158 = icmp ne i64 %157, 0
  br i1 %158, label %159, label %165

159:                                              ; preds = %151
  %160 = load i32, ptr %28, align 4
  %161 = load i32, ptr %21, align 4
  %162 = load ptr, ptr %25, align 8
  %163 = load i32, ptr %24, align 4
  %164 = load ptr, ptr %23, align 8
  call void @zend_wrong_parameter_error(i32 noundef %160, i32 noundef %161, ptr noundef %162, i32 noundef %163, ptr noundef %164)
  br label %184

165:                                              ; preds = %151
  br label %166

166:                                              ; preds = %165
  %167 = load ptr, ptr %13, align 8
  %168 = getelementptr inbounds %struct._zval_struct, ptr %167, i32 0, i32 0
  %169 = load ptr, ptr %168, align 8
  %170 = call ptr @php_date_obj_from_obj(ptr noundef %169)
  store ptr %170, ptr %14, align 8
  %171 = load ptr, ptr %15, align 8
  %172 = getelementptr inbounds %struct._zval_struct, ptr %171, i32 0, i32 0
  %173 = load ptr, ptr %172, align 8
  store ptr %173, ptr %16, align 8
  %174 = load ptr, ptr %16, align 8
  %175 = call zeroext i1 @php_date_initialize_from_hash(ptr noundef %14, ptr noundef %174)
  br i1 %175, label %181, label %176

176:                                              ; preds = %166
  call void (ptr, ptr, ...) @zend_throw_error(ptr noundef null, ptr noundef @.str.42)
  br label %177

177:                                              ; preds = %176
  %178 = load ptr, ptr getelementptr inbounds (%struct._zend_executor_globals, ptr @executor_globals, i32 0, i32 50), align 8
  %179 = icmp ne ptr %178, null
  call void @llvm.assume(i1 %179)
  br label %184

180:                                              ; No predecessors!
  br label %181

181:                                              ; preds = %180, %166
  %182 = load ptr, ptr %13, align 8
  %183 = load ptr, ptr %16, align 8
  call void @restore_custom_datetime_properties(ptr noundef %182, ptr noundef %183)
  br label %184

184:                                              ; preds = %181, %177, %159
  ret void
}