; Function Attrs: nounwind uwtable
define hidden void @zim_DateTimeImmutable___unserialize(ptr noundef %0, ptr nocapture readnone %1) #0 {
  %3 = alloca ptr, align 8
  %4 = getelementptr inbounds i8, ptr %0, i64 32
  %5 = getelementptr inbounds i8, ptr %0, i64 44
  %6 = load i32, ptr %5, align 4
  %cond = icmp eq i32 %6, 1
  br i1 %cond, label %8, label %7

7:                                                ; preds = %2
  tail call void @zend_wrong_parameters_count_error(i32 noundef 1, i32 noundef 1) #25
  br label %12

8:                                                ; preds = %2
  %9 = getelementptr inbounds i8, ptr %0, i64 80
  %10 = getelementptr inbounds i8, ptr %0, i64 88
  %11 = load i8, ptr %10, align 8
  %.not53 = icmp eq i8 %11, 7
  br i1 %.not53, label %13, label %12

12:                                               ; preds = %7, %8
  %.049.ph = phi ptr [ %9, %8 ], [ null, %7 ]
  %.048.ph = phi i32 [ 6, %8 ], [ 0, %7 ]
  %.047.ph = phi i32 [ 1, %8 ], [ 0, %7 ]
  %.0.ph = phi i32 [ 9, %8 ], [ 1, %7 ]
  tail call void @zend_wrong_parameter_error(i32 noundef %.0.ph, i32 noundef %.047.ph, ptr noundef null, i32 noundef %.048.ph, ptr noundef %.049.ph) #25
  br label %22

13:                                               ; preds = %8
  %14 = load ptr, ptr %4, align 8
  %15 = getelementptr inbounds i8, ptr %14, i64 -8
  store ptr %15, ptr %3, align 8
  %16 = load ptr, ptr %9, align 8
  %17 = call fastcc zeroext i1 @php_date_initialize_from_hash(ptr noundef nonnull %3, ptr noundef %16)
  br i1 %17, label %21, label %18

18:                                               ; preds = %13
  tail call void (ptr, ptr, ...) @zend_throw_error(ptr noundef null, ptr noundef nonnull @.str.42) #25
  %19 = load ptr, ptr getelementptr inbounds (%struct._zend_executor_globals, ptr @executor_globals, i64 0, i32 50), align 8
  %20 = icmp ne ptr %19, null
  tail call void @llvm.assume(i1 %20)
  br label %22

21:                                               ; preds = %13
  tail call fastcc void @restore_custom_datetime_properties(ptr noundef nonnull %4, ptr noundef %16)
  br label %22

22:                                               ; preds = %21, %18, %12
  ret void
}